target datalayout = "e-m:e-p270:32:32-p271:32:32-p272:64:64-i64:64-i128:128-f80:128-n8:16:32:64-S128"
target triple = "x86_64-pc-linux-gnu"

%struct.expert_field = type { i32, i32 }

@hf_nfapi_downlink_channel_bandwidth = internal global i32 0, align 4
@ei_invalid_range = internal global %struct.expert_field zeroinitializer, align 4
@.str.1751 = private unnamed_addr constant [58 x i8] c"Invalid downlink bandwidth value [6, 15, 25, 50, 75, 100]\00", align 1

; Function Attrs: nounwind uwtable
define internal void @dissect_dl_channel_bandwidth_value(ptr noundef %0, ptr noundef %1) #0 {
  %3 = alloca ptr, align 8
  %4 = alloca ptr, align 8
  %5 = alloca i32, align 4
  %6 = alloca ptr, align 8
  store ptr %0, ptr %3, align 8
  store ptr %1, ptr %4, align 8
  %7 = load ptr, ptr %3, align 8
  %8 = load i32, ptr @hf_nfapi_downlink_channel_bandwidth, align 4
  %9 = call ptr @ptvcursor_add_ret_uint(ptr noundef %7, i32 noundef %8, i32 noundef 2, i32 noundef 0, ptr noundef %5)
  store ptr %9, ptr %6, align 8
  %10 = load i32, ptr %5, align 4
  %11 = icmp eq i32 %10, 6
  br i1 %11, label %31, label %12

12:                                               ; preds = %2
  %13 = load i32, ptr %5, align 4
  %14 = icmp eq i32 %13, 15
  br i1 %14, label %31, label %15

15:                                               ; preds = %12
  %16 = load i32, ptr %5, align 4
  %17 = icmp eq i32 %16, 25
  br i1 %17, label %31, label %18

18:                                               ; preds = %15
  %19 = load i32, ptr %5, align 4
  %20 = icmp eq i32 %19, 50
  br i1 %20, label %31, label %21

21:                                               ; preds = %18
  %22 = load i32, ptr %5, align 4
  %23 = icmp eq i32 %22, 75
  br i1 %23, label %31, label %24

24:                                               ; preds = %21
  %25 = load i32, ptr %5, align 4
  %26 = icmp eq i32 %25, 100
  br i1 %26, label %31, label %27

27:                                               ; preds = %24
  %28 = load ptr, ptr %4, align 8
  %29 = load ptr, ptr %6, align 8
  %30 = call ptr (ptr, ptr, ptr, ptr, ...) @expert_add_info_format(ptr noundef %28, ptr noundef %29, ptr noundef @ei_invalid_range, ptr noundef @.str.1751)
  br label %31

31:                                               ; preds = %27, %24, %21, %18, %15, %12, %2
  ret void
}